; Function Attrs: nounwind uwtable
define internal ptr @Xxo_demo(ptr readnone captures(none) %0, ptr noundef %1, ptr noundef readonly captures(none) %2, i64 noundef %3, ptr noundef %4) #0 {
  %.not = icmp eq ptr %4, null
  br i1 %.not, label %10, label %6

6:                                                ; preds = %5
  %7 = tail call i64 @PyObject_Size(ptr noundef nonnull %4) #5
  %.not10 = icmp eq i64 %7, 0
  br i1 %.not10, label %10, label %8

8:                                                ; preds = %6
  %9 = load ptr, ptr @PyExc_TypeError, align 8, !tbaa !10
  tail call void @PyErr_SetString(ptr noundef %9, ptr noundef nonnull @.str.15) #5
  br label %23

10:                                               ; preds = %6, %5
  %.not11 = icmp eq i64 %3, 1
  br i1 %.not11, label %13, label %11

11:                                               ; preds = %10
  %12 = load ptr, ptr @PyExc_TypeError, align 8, !tbaa !10
  tail call void @PyErr_SetString(ptr noundef %12, ptr noundef nonnull @.str.16) #5
  br label %23

13:                                               ; preds = %10
  %14 = load ptr, ptr %2, align 8, !tbaa !10
  %15 = getelementptr i8, ptr %14, i64 8
  %.val = load ptr, ptr %15, align 8, !tbaa !17
  %16 = tail call i64 @PyType_GetFlags(ptr noundef %.val) #5
  %17 = and i64 %16, 268435456
  %.not12 = icmp eq i64 %17, 0
  br i1 %.not12, label %19, label %18

18:                                               ; preds = %13
  tail call void @_Py_IncRef(ptr noundef nonnull %14) #5
  br label %23

19:                                               ; preds = %13
  %.val14 = load ptr, ptr %15, align 8, !tbaa !17
  %.not.i = icmp eq ptr %.val14, %1
  br i1 %.not.i, label %PyObject_TypeCheck.exit.thread, label %PyObject_TypeCheck.exit

PyObject_TypeCheck.exit:                          ; preds = %19
  %20 = tail call i32 @PyType_IsSubtype(ptr noundef %.val14, ptr noundef %1) #5
  %.not16 = icmp eq i32 %20, 0
  br i1 %.not16, label %21, label %PyObject_TypeCheck.exit.thread

PyObject_TypeCheck.exit.thread:                   ; preds = %19, %PyObject_TypeCheck.exit
  tail call void @_Py_IncRef(ptr noundef nonnull %14) #5
  br label %23

21:                                               ; preds = %PyObject_TypeCheck.exit
  %22 = tail call ptr @Py_GetConstantBorrowed(i32 noundef 0) #5
  tail call void @_Py_IncRef(ptr noundef %22) #5
  br label %23

23:                                               ; preds = %18, %PyObject_TypeCheck.exit.thread, %21, %11, %8
  %.0 = phi ptr [ null, %8 ], [ null, %11 ], [ %14, %18 ], [ %14, %PyObject_TypeCheck.exit.thread ], [ %22, %21 ]
  ret ptr %.0
}